Certificate:
    Data:
        Version: 3 (0x2)
        Serial Number:
            2c:52:17:9e:e7:95:3e:53:6c:82:dc:e8:1b:c5:cd:2d:85:64:4d:ee
        Signature Algorithm: sha256WithRSAEncryption
        Issuer: C = US, ST = Massachusetts, L = Bedford, O = Personal, OU = Personal, emailAddress = example@example.com, CN = localhost
        Validity
            Not Before: Sep 19 07:02:45 2023 GMT
            Not After : Sep 16 07:02:45 2033 GMT
        Subject: C = US, ST = Massachusetts, L = Bedford, O = Personal, OU = Personal, emailAddress = example@example.com, CN = localhost
        Subject Public Key Info:
            Public Key Algorithm: rsaEncryption
                Public-Key: (2048 bit)
                Modulus:
                    00:c6:d2:8f:79:3c:1c:d3:14:36:b0:70:0f:4e:aa:
                    6e:77:f4:3d:d6:5e:fe:00:f1:7d:c5:c6:8b:af:f7:
                    74:78:7b:2d:07:b6:02:1f:db:48:ca:cd:7b:0e:db:
                    ff:43:ca:24:65:ee:d6:65:94:01:f5:67:ab:bb:e2:
                    82:7a:87:a8:94:1a:49:d3:c9:05:58:3f:63:6f:b0:
                    95:5b:2b:56:8d:4d:c8:ce:7a:b9:7c:db:8c:20:3a:
                    26:e2:33:fa:1d:bf:25:9b:6e:28:91:f8:55:c8:a3:
                    a2:11:d7:81:de:da:e9:af:43:48:d2:56:d5:91:a8:
                    b0:20:5a:c5:18:d7:8c:89:a6:ec:92:07:05:fa:45:
                    04:3b:cb:d4:35:4f:ac:32:bc:94:19:7a:f3:c8:8f:
                    b2:fd:9e:5e:3d:5d:0e:79:c8:88:21:0b:7c:8a:56:
                    d9:35:82:c8:9c:6d:76:59:a9:4a:5c:f5:d7:ab:f5:
                    2d:67:9f:bf:2d:a3:e5:9d:fe:6f:ba:f6:9b:0e:5b:
                    23:8e:5d:92:1d:83:1c:a1:68:df:c0:be:87:e6:b8:
                    ee:a6:24:a3:85:5c:7f:fb:72:ce:ec:bc:fd:df:3c:
                    33:7f:0d:12:76:f0:ca:37:19:21:65:63:e5:f5:05:
                    5f:40:3f:25:92:f6:97:f1:90:23:00:11:21:8f:1b:
                    61:97
                Exponent: 65537 (0x10001)
        X509v3 extensions:
            X509v3 Subject Key Identifier: 
                C9:18:65:22:A7:9E:90:6B:BC:10:9A:D2:2A:DE:15:3E:B5:4C:83:8F
            X509v3 Authority Key Identifier: 
                C9:18:65:22:A7:9E:90:6B:BC:10:9A:D2:2A:DE:15:3E:B5:4C:83:8F
            X509v3 Basic Constraints: critical
                CA:TRUE
    Signature Algorithm: sha256WithRSAEncryption
    Signature Value:
        2e:8c:03:d8:9f:c6:57:02:e9:f3:e3:da:0e:79:90:25:52:95:
        d9:de:57:36:ab:96:64:2f:d1:27:e0:7b:8e:b8:cc:e6:2d:09:
        07:d7:7f:33:8f:58:4b:8f:de:55:1e:93:21:eb:58:79:59:74:
        87:29:a9:84:da:52:90:2c:1e:19:3a:0c:d2:90:27:c7:94:79:
        d8:44:2e:e3:c0:d9:9b:f0:03:47:38:0b:15:8c:cc:87:ac:fd:
        d5:bb:18:58:1f:36:7e:7d:04:98:0f:b1:3d:92:64:82:a4:6d:
        51:27:08:c0:81:28:39:87:8c:66:f5:b5:dc:61:7c:56:37:f0:
        00:93:a8:d5:10:97:8b:1b:a1:65:09:4d:77:16:2b:eb:4d:d0:
        32:ce:6a:6e:7a:32:f5:9c:46:69:36:da:be:fc:17:c8:f8:40:
        83:31:f1:67:c7:ff:22:6d:3d:45:9d:9b:73:4d:c2:02:35:e8:
        c9:40:aa:8e:e9:9f:c6:41:25:1d:01:8c:f5:55:97:e5:25:8e:
        42:7f:4f:87:ab:12:86:e5:e1:d1:37:d7:24:93:06:4f:15:48:
        b7:33:b7:b3:ed:6b:82:7d:3d:e8:be:cf:11:fd:da:01:ff:ac:
        42:b2:77:e6:0a:ee:21:2a:f2:b3:e2:f0:cc:dd:61:3e:20:9f:
        1b:8e:32:b4
-----BEGIN CERTIFICATE-----
MIIEDTCCAvWgAwIBAgIULFIXnueVPlNsgtzoG8XNLYVkTe4wDQYJKoZIhvcNAQEL
BQAwgZUxCzAJBgNVBAYTAlVTMRYwFAYDVQQIDA1NYXNzYWNodXNldHRzMRAwDgYD
VQQHDAdCZWRmb3JkMREwDwYDVQQKDAhQZXJzb25hbDERMA8GA1UECwwIUGVyc29u
YWwxIjAgBgkqhkiG9w0BCQEWE2V4YW1wbGVAZXhhbXBsZS5jb20xEjAQBgNVBAMM
CWxvY2FsaG9zdDAeFw0yMzA5MTkwNzAyNDVaFw0zMzA5MTYwNzAyNDVaMIGVMQsw
CQYDVQQGEwJVUzEWMBQGA1UECAwNTWFzc2FjaHVzZXR0czEQMA4GA1UEBwwHQmVk
Zm9yZDERMA8GA1UECgwIUGVyc29uYWwxETAPBgNVBAsMCFBlcnNvbmFsMSIwIAYJ
KoZIhvcNAQkBFhNleGFtcGxlQGV4YW1wbGUuY29tMRIwEAYDVQQDDAlsb2NhbGhv
c3QwggEiMA0GCSqGSIb3DQEBAQUAA4IBDwAwggEKAoIBAQDG0o95PBzTFDawcA9O
qm539D3WXv4A8X3Fxouv93R4ey0HtgIf20jKzXsO2/9DyiRl7tZllAH1Z6u74oJ6
h6iUGknTyQVYP2NvsJVbK1aNTcjOerl824wgOibiM/odvyWbbiiR+FXIo6IR14He
2umvQ0jSVtWRqLAgWsUY14yJpuySBwX6RQQ7y9Q1T6wyvJQZevPIj7L9nl49XQ55
yIghC3yKVtk1gsicbXZZqUpc9der9S1nn78to+Wd/m+69psOWyOOXZIdgxyhaN/A
vofmuO6mJKOFXH/7cs7svP3fPDN/DRJ28Mo3GSFlY+X1BV9APyWS9pfxkCMAESGP
G2GXAgMBAAGjUzBRMB0GA1UdDgQWBBTJGGUip56Qa7wQmtIq3hU+tUyDjzAfBgNV
HSMEGDAWgBTJGGUip56Qa7wQmtIq3hU+tUyDjzAPBgNVHRMBAf8EBTADAQH/MA0G
CSqGSIb3DQEBCwUAA4IBAQAujAPYn8ZXAunz49oOeZAlUpXZ3lc2q5ZkL9En4HuO
uMzmLQkH138zj1hLj95VHpMh61h5WXSHKamE2lKQLB4ZOgzSkCfHlHnYRC7jwNmb
8ANHOAsVjMyHrP3VuxhYHzZ+fQSYD7E9kmSCpG1RJwjAgSg5h4xm9bXcYXxWN/AA
k6jVEJeLG6FlCU13FivrTdAyzmpuejL1nEZpNtq+/BfI+ECDMfFnx/8ibT1FnZtz
TcICNejJQKqO6Z/GQSUdAYz1VZflJY5Cf0+HqxKG5eHRN9ckkwZPFUi3M7ez7WuC
fT3ovs8R/doB/6xCsnfmCu4hKvKz4vDM3WE+IJ8bjjK0
-----END CERTIFICATE-----
